; Function Attrs: mustprogress uwtable
define dso_local void @_ZN6Sample16updateToolStatesEf(ptr nocapture noundef nonnull readonly align 8 dereferenceable(200) %0, float noundef %1) local_unnamed_addr #3 align 2 {
  %3 = getelementptr inbounds i8, ptr %0, i64 112
  br label %4

4:                                                ; preds = %2, %11
  %indvars.iv = phi i64 [ 0, %2 ], [ %indvars.iv.next, %11 ]
  %5 = getelementptr inbounds [9 x ptr], ptr %3, i64 0, i64 %indvars.iv
  %6 = load ptr, ptr %5, align 8
  %.not = icmp eq ptr %6, null
  br i1 %.not, label %11, label %7

7:                                                ; preds = %4
  %8 = load ptr, ptr %6, align 8
  %9 = getelementptr inbounds i8, ptr %8, i64 48
  %10 = load ptr, ptr %9, align 8
  tail call void %10(ptr noundef nonnull align 8 dereferenceable(8) %6, float noundef %1)
  br label %11

11:                                               ; preds = %4, %7
  %indvars.iv.next = add nuw nsw i64 %indvars.iv, 1
  %exitcond.not = icmp eq i64 %indvars.iv.next, 9
  br i1 %exitcond.not, label %12, label %4, !llvm.loop !7

12:                                               ; preds = %11
  ret void
}